target datalayout = "e-m:e-p270:32:32-p271:32:32-p272:64:64-i64:64-i128:128-f80:128-n8:16:32:64-S128"
target triple = "x86_64-unknown-linux-gnu"

%class.symbol = type { ptr }
%"class.datalog::rule" = type { %"class.datalog::accounted_object.base", ptr, ptr, i32, i32, i32, i32, %class.symbol, [0 x ptr] }
%"class.datalog::accounted_object.base" = type <{ ptr, ptr, %"struct.datalog::costs", %"struct.datalog::costs", i8 }>
%"struct.datalog::costs" = type { i32, i32 }

; Function Attrs: mustprogress nounwind uwtable
define hidden void @_ZN7datalog12rule_manager7inc_refEPNS_4ruleE(ptr noundef nonnull align 8 dereferenceable(1368) %this, ptr noundef %r) #5 align 2 {
entry:
  %this.addr = alloca ptr, align 8
  %r.addr = alloca ptr, align 8
  store ptr %this, ptr %this.addr, align 8
  store ptr %r, ptr %r.addr, align 8
  %0 = load ptr, ptr %r.addr, align 8
  %tobool = icmp ne ptr %0, null
  br i1 %tobool, label %if.then, label %if.end

if.then:                                          ; preds = %entry
  %1 = load ptr, ptr %r.addr, align 8
  %m_ref_cnt = getelementptr inbounds %"class.datalog::rule", ptr %1, i32 0, i32 4
  %2 = load i32, ptr %m_ref_cnt, align 4
  %inc = add i32 %2, 1
  store i32 %inc, ptr %m_ref_cnt, align 4
  br label %if.end

if.end:                                           ; preds = %if.then, %entry
  ret void
}