; Function Attrs: mustprogress nofree norecurse nosync nounwind willreturn memory(argmem: readwrite) uwtable
define hidden void @_ZN7datalog12rule_manager7inc_refEPNS_4ruleE(ptr nocapture noundef nonnull readnone align 8 dereferenceable(1368) %this, ptr noundef %r) local_unnamed_addr #5 align 2 {
entry:
  %tobool.not = icmp eq ptr %r, null
  br i1 %tobool.not, label %if.end, label %if.then

if.then:                                          ; preds = %entry
  %m_ref_cnt = getelementptr inbounds i8, ptr %r, i64 60
  %0 = load i32, ptr %m_ref_cnt, align 4
  %inc = add i32 %0, 1
  store i32 %inc, ptr %m_ref_cnt, align 4
  br label %if.end

if.end:                                           ; preds = %if.then, %entry
  ret void
}